; ModuleID = '8/1120.c'
source_filename = "8/1120.c"
target datalayout = "e-m:e-p270:32:32-p271:32:32-p272:64:64-i64:64-f80:128-n8:16:32:64-S128"
target triple = "x86_64-pc-linux-gnu"

@.str = private unnamed_addr constant [6 x i8] c"%d %d\00", align 1
@na = common dso_local global i32 0, align 4
@nb = common dso_local global i32 0, align 4
@a = common dso_local global i32* null, align 8
@b = common dso_local global i32* null, align 8
@.str.1 = private unnamed_addr constant [3 x i8] c"%d\00", align 1
@.str.2 = private unnamed_addr constant [4 x i8] c" %d\00", align 1

; Function Attrs: noinline nounwind uwtable
define dso_local void @input() #0 {
  %1 = alloca i32, align 4
  %2 = alloca i32, align 4
  %3 = call i32 (i8*, ...) @__isoc99_scanf(i8* getelementptr inbounds ([6 x i8], [6 x i8]* @.str, i64 0, i64 0), i32* @na, i32* @nb)
  %4 = load i32, i32* @na, align 4
  %5 = sext i32 %4 to i64
  %6 = mul i64 %5, 4
  %7 = call noalias i8* @malloc(i64 %6) #3
  %8 = bitcast i8* %7 to i32*
  store i32* %8, i32** @a, align 8
  %9 = load i32, i32* @nb, align 4
  %10 = sext i32 %9 to i64
  %11 = mul i64 %10, 4
  %12 = call noalias i8* @malloc(i64 %11) #3
  %13 = bitcast i8* %12 to i32*
  store i32* %13, i32** @b, align 8
  store i32 0, i32* %1, align 4
  br label %14

14:                                               ; preds = %24, %0
  %15 = load i32, i32* %1, align 4
  %16 = load i32, i32* @na, align 4
  %17 = icmp slt i32 %15, %16
  br i1 %17, label %18, label %27

18:                                               ; preds = %14
  %19 = load i32*, i32** @a, align 8
  %20 = load i32, i32* %1, align 4
  %21 = sext i32 %20 to i64
  %22 = getelementptr inbounds i32, i32* %19, i64 %21
  %23 = call i32 (i8*, ...) @__isoc99_scanf(i8* getelementptr inbounds ([3 x i8], [3 x i8]* @.str.1, i64 0, i64 0), i32* %22)
  br label %24

24:                                               ; preds = %18
  %25 = load i32, i32* %1, align 4
  %26 = add nsw i32 %25, 1
  store i32 %26, i32* %1, align 4
  br label %14

27:                                               ; preds = %14
  store i32 0, i32* %2, align 4
  br label %28

28:                                               ; preds = %38, %27
  %29 = load i32, i32* %2, align 4
  %30 = load i32, i32* @nb, align 4
  %31 = icmp slt i32 %29, %30
  br i1 %31, label %32, label %41

32:                                               ; preds = %28
  %33 = load i32*, i32** @b, align 8
  %34 = load i32, i32* %2, align 4
  %35 = sext i32 %34 to i64
  %36 = getelementptr inbounds i32, i32* %33, i64 %35
  %37 = call i32 (i8*, ...) @__isoc99_scanf(i8* getelementptr inbounds ([3 x i8], [3 x i8]* @.str.1, i64 0, i64 0), i32* %36)
  br label %38

38:                                               ; preds = %32
  %39 = load i32, i32* %2, align 4
  %40 = add nsw i32 %39, 1
  store i32 %40, i32* %2, align 4
  br label %28

41:                                               ; preds = %28
  ret void
}

declare dso_local i32 @__isoc99_scanf(i8*, ...) #1

; Function Attrs: nounwind
declare dso_local noalias i8* @malloc(i64) #2

; Function Attrs: noinline nounwind uwtable
define dso_local i32 @pfC(i8* %0, i8* %1) #0 {
  %3 = alloca i8*, align 8
  %4 = alloca i8*, align 8
  %5 = alloca i32, align 4
  store i8* %0, i8** %3, align 8
  store i8* %1, i8** %4, align 8
  %6 = load i8*, i8** %3, align 8
  %7 = bitcast i8* %6 to i32*
  %8 = load i32, i32* %7, align 4
  %9 = load i8*, i8** %4, align 8
  %10 = bitcast i8* %9 to i32*
  %11 = load i32, i32* %10, align 4
  %12 = sub nsw i32 %8, %11
  store i32 %12, i32* %5, align 4
  %13 = load i32, i32* %5, align 4
  ret i32 %13
}

; Function Attrs: noinline nounwind uwtable
define dso_local void @order() #0 {
  %1 = load i32*, i32** @a, align 8
  %2 = bitcast i32* %1 to i8*
  %3 = load i32, i32* @na, align 4
  %4 = sext i32 %3 to i64
  call void @qsort(i8* %2, i64 %4, i64 4, i32 (i8*, i8*)* @pfC)
  %5 = load i32*, i32** @b, align 8
  %6 = bitcast i32* %5 to i8*
  %7 = load i32, i32* @nb, align 4
  %8 = sext i32 %7 to i64
  call void @qsort(i8* %6, i64 %8, i64 4, i32 (i8*, i8*)* @pfC)
  ret void
}

declare dso_local void @qsort(i8*, i64, i64, i32 (i8*, i8*)*) #1

; Function Attrs: noinline nounwind uwtable
define dso_local void @print() #0 {
  %1 = alloca i32, align 4
  %2 = alloca i32, align 4
  %3 = load i32*, i32** @a, align 8
  %4 = getelementptr inbounds i32, i32* %3, i64 0
  %5 = load i32, i32* %4, align 4
  %6 = call i32 (i8*, ...) @printf(i8* getelementptr inbounds ([3 x i8], [3 x i8]* @.str.1, i64 0, i64 0), i32 %5)
  store i32 1, i32* %1, align 4
  br label %7

7:                                                ; preds = %18, %0
  %8 = load i32, i32* %1, align 4
  %9 = load i32, i32* @na, align 4
  %10 = icmp slt i32 %8, %9
  br i1 %10, label %11, label %21

11:                                               ; preds = %7
  %12 = load i32*, i32** @a, align 8
  %13 = load i32, i32* %1, align 4
  %14 = sext i32 %13 to i64
  %15 = getelementptr inbounds i32, i32* %12, i64 %14
  %16 = load i32, i32* %15, align 4
  %17 = call i32 (i8*, ...) @printf(i8* getelementptr inbounds ([4 x i8], [4 x i8]* @.str.2, i64 0, i64 0), i32 %16)
  br label %18

18:                                               ; preds = %11
  %19 = load i32, i32* %1, align 4
  %20 = add nsw i32 %19, 1
  store i32 %20, i32* %1, align 4
  br label %7

21:                                               ; preds = %7
  store i32 0, i32* %2, align 4
  br label %22

22:                                               ; preds = %33, %21
  %23 = load i32, i32* %2, align 4
  %24 = load i32, i32* @nb, align 4
  %25 = icmp slt i32 %23, %24
  br i1 %25, label %26, label %36

26:                                               ; preds = %22
  %27 = load i32*, i32** @b, align 8
  %28 = load i32, i32* %2, align 4
  %29 = sext i32 %28 to i64
  %30 = getelementptr inbounds i32, i32* %27, i64 %29
  %31 = load i32, i32* %30, align 4
  %32 = call i32 (i8*, ...) @printf(i8* getelementptr inbounds ([4 x i8], [4 x i8]* @.str.2, i64 0, i64 0), i32 %31)
  br label %33

33:                                               ; preds = %26
  %34 = load i32, i32* %2, align 4
  %35 = add nsw i32 %34, 1
  store i32 %35, i32* %2, align 4
  br label %22

36:                                               ; preds = %22
  ret void
}

declare dso_local i32 @printf(i8*, ...) #1

; Function Attrs: noinline nounwind uwtable
define dso_local i32 @main() #0 {
  call void @input()
  call void @order()
  call void @print()
  ret i32 0
}


!llvm.module.flags = !{!0}
!llvm.ident = !{!1}

!0 = !{i32 1, !"wchar_size", i32 4}
!1 = !{!"clang version 10.0.0-4ubuntu1 "}
